target datalayout = "e-m:e-p270:32:32-p271:32:32-p272:64:64-i64:64-i128:128-f80:128-n8:16:32:64-S128"
target triple = "x86_64-pc-linux-gnu"

@.str.1 = private unnamed_addr constant [6 x i8] c"acl.c\00", align 1
@.str.30 = private unnamed_addr constant [30 x i8] c"must be able to SET ROLE \22%s\22\00", align 1
@__func__.check_can_set_role = private unnamed_addr constant [19 x i8] c"check_can_set_role\00", align 1

; Function Attrs: nounwind uwtable
define dso_local zeroext i1 @member_can_set_role(i32 noundef %0, i32 noundef %1) #0 {
  %3 = alloca i1, align 1
  %4 = alloca i32, align 4
  %5 = alloca i32, align 4
  store i32 %0, ptr %4, align 4
  store i32 %1, ptr %5, align 4
  %6 = load i32, ptr %4, align 4
  %7 = load i32, ptr %5, align 4
  %8 = icmp eq i32 %6, %7
  br i1 %8, label %9, label %10

9:                                                ; preds = %2
  store i1 true, ptr %3, align 1
  br label %19

10:                                               ; preds = %2
  %11 = load i32, ptr %4, align 4
  %12 = call zeroext i1 @superuser_arg(i32 noundef %11)
  br i1 %12, label %13, label %14

13:                                               ; preds = %10
  store i1 true, ptr %3, align 1
  br label %19

14:                                               ; preds = %10
  %15 = load i32, ptr %4, align 4
  %16 = call ptr @roles_is_member_of(i32 noundef %15, i32 noundef 2, i32 noundef 0, ptr noundef null)
  %17 = load i32, ptr %5, align 4
  %18 = call zeroext i1 @list_member_oid(ptr noundef %16, i32 noundef %17)
  store i1 %18, ptr %3, align 1
  br label %19

19:                                               ; preds = %14, %13, %9
  %20 = load i1, ptr %3, align 1
  ret i1 %20
}

; Function Attrs: nounwind uwtable
define dso_local void @check_can_set_role(i32 noundef %0, i32 noundef %1) #0 {
  %3 = alloca i32, align 4
  %4 = alloca i32, align 4
  store i32 %0, ptr %3, align 4
  store i32 %1, ptr %4, align 4
  %5 = load i32, ptr %3, align 4
  %6 = load i32, ptr %4, align 4
  %7 = call zeroext i1 @member_can_set_role(i32 noundef %5, i32 noundef %6)
  br i1 %7, label %21, label %8

8:                                                ; preds = %2
  br label %9

9:                                                ; preds = %8
  br i1 true, label %10, label %12

10:                                               ; preds = %9
  %11 = call zeroext i1 @errstart_cold(i32 noundef 21, ptr noundef null) #10
  br i1 %11, label %14, label %19

12:                                               ; preds = %9
  %13 = call zeroext i1 @errstart(i32 noundef 21, ptr noundef null)
  br i1 %13, label %14, label %19

14:                                               ; preds = %12, %10
  %15 = call i32 @errcode(i32 noundef 16797828)
  %16 = load i32, ptr %4, align 4
  %17 = call ptr @GetUserNameFromId(i32 noundef %16, i1 noundef zeroext false)
  %18 = call i32 (ptr, ...) @errmsg(ptr noundef @.str.30, ptr noundef %17)
  call void @errfinish(ptr noundef @.str.1, i32 noundef 5331, ptr noundef @__func__.check_can_set_role)
  br label %19

19:                                               ; preds = %14, %12, %10
  unreachable

20:                                               ; No predecessors!
  br label %21

21:                                               ; preds = %20, %2
  ret void
}