; Function Attrs: nounwind uwtable
define dso_local void @check_can_set_role(i32 noundef %0, i32 noundef %1) local_unnamed_addr #0 {
  %3 = icmp eq i32 %0, %1
  br i1 %3, label %member_can_set_role.exit.thread, label %4

4:                                                ; preds = %2
  %5 = tail call zeroext i1 @superuser_arg(i32 noundef %0) #14
  br i1 %5, label %member_can_set_role.exit.thread, label %member_can_set_role.exit

member_can_set_role.exit:                         ; preds = %4
  %6 = tail call fastcc ptr @roles_is_member_of(i32 noundef %0, i32 noundef 2, i32 noundef 0, ptr noundef null)
  %7 = tail call zeroext i1 @list_member_oid(ptr noundef %6, i32 noundef %1) #14
  br i1 %7, label %member_can_set_role.exit.thread, label %8

8:                                                ; preds = %member_can_set_role.exit
  %9 = tail call zeroext i1 @errstart_cold(i32 noundef 21, ptr noundef null) #15
  tail call void @llvm.assume(i1 %9)
  %10 = tail call i32 @errcode(i32 noundef 16797828) #14
  %11 = tail call ptr @GetUserNameFromId(i32 noundef %1, i1 noundef zeroext false) #14
  %12 = tail call i32 (ptr, ...) @errmsg(ptr noundef nonnull @.str.30, ptr noundef %11) #14
  tail call void @errfinish(ptr noundef nonnull @.str.1, i32 noundef 5331, ptr noundef nonnull @__func__.check_can_set_role) #14
  unreachable

member_can_set_role.exit.thread:                  ; preds = %4, %2, %member_can_set_role.exit
  ret void
}